
pipe:     file format elf64-x86-64


Disassembly of section .init:

0000000000001000 <_init>:
    1000:	48 83 ec 08          	sub    $0x8,%rsp
    1004:	48 8b 05 dd 2f 00 00 	mov    0x2fdd(%rip),%rax        # 3fe8 <__gmon_start__>
    100b:	48 85 c0             	test   %rax,%rax
    100e:	74 02                	je     1012 <_init+0x12>
    1010:	ff d0                	callq  *%rax
    1012:	48 83 c4 08          	add    $0x8,%rsp
    1016:	c3                   	retq   

Disassembly of section .plt:

0000000000001020 <.plt>:
    1020:	ff 35 e2 2f 00 00    	pushq  0x2fe2(%rip)        # 4008 <_GLOBAL_OFFSET_TABLE_+0x8>
    1026:	ff 25 e4 2f 00 00    	jmpq   *0x2fe4(%rip)        # 4010 <_GLOBAL_OFFSET_TABLE_+0x10>
    102c:	0f 1f 40 00          	nopl   0x0(%rax)

0000000000001030 <puts@plt>:
    1030:	ff 25 e2 2f 00 00    	jmpq   *0x2fe2(%rip)        # 4018 <puts@GLIBC_2.2.5>
    1036:	68 00 00 00 00       	pushq  $0x0
    103b:	e9 e0 ff ff ff       	jmpq   1020 <.plt>

0000000000001040 <write@plt>:
    1040:	ff 25 da 2f 00 00    	jmpq   *0x2fda(%rip)        # 4020 <write@GLIBC_2.2.5>
    1046:	68 01 00 00 00       	pushq  $0x1
    104b:	e9 d0 ff ff ff       	jmpq   1020 <.plt>

0000000000001050 <pipe@plt>:
    1050:	ff 25 d2 2f 00 00    	jmpq   *0x2fd2(%rip)        # 4028 <pipe@GLIBC_2.2.5>
    1056:	68 02 00 00 00       	pushq  $0x2
    105b:	e9 c0 ff ff ff       	jmpq   1020 <.plt>

0000000000001060 <read@plt>:
    1060:	ff 25 ca 2f 00 00    	jmpq   *0x2fca(%rip)        # 4030 <read@GLIBC_2.2.5>
    1066:	68 03 00 00 00       	pushq  $0x3
    106b:	e9 b0 ff ff ff       	jmpq   1020 <.plt>

0000000000001070 <perror@plt>:
    1070:	ff 25 c2 2f 00 00    	jmpq   *0x2fc2(%rip)        # 4038 <perror@GLIBC_2.2.5>
    1076:	68 04 00 00 00       	pushq  $0x4
    107b:	e9 a0 ff ff ff       	jmpq   1020 <.plt>

0000000000001080 <exit@plt>:
    1080:	ff 25 ba 2f 00 00    	jmpq   *0x2fba(%rip)        # 4040 <exit@GLIBC_2.2.5>
    1086:	68 05 00 00 00       	pushq  $0x5
    108b:	e9 90 ff ff ff       	jmpq   1020 <.plt>

0000000000001090 <fork@plt>:
    1090:	ff 25 b2 2f 00 00    	jmpq   *0x2fb2(%rip)        # 4048 <fork@GLIBC_2.2.5>
    1096:	68 06 00 00 00       	pushq  $0x6
    109b:	e9 80 ff ff ff       	jmpq   1020 <.plt>

Disassembly of section .plt.got:

00000000000010a0 <__cxa_finalize@plt>:
    10a0:	ff 25 52 2f 00 00    	jmpq   *0x2f52(%rip)        # 3ff8 <__cxa_finalize@GLIBC_2.2.5>
    10a6:	66 90                	xchg   %ax,%ax

Disassembly of section .text:

00000000000010b0 <_start>:
    10b0:	31 ed                	xor    %ebp,%ebp
    10b2:	49 89 d1             	mov    %rdx,%r9
    10b5:	5e                   	pop    %rsi
    10b6:	48 89 e2             	mov    %rsp,%rdx
    10b9:	48 83 e4 f0          	and    $0xfffffffffffffff0,%rsp
    10bd:	50                   	push   %rax
    10be:	54                   	push   %rsp
    10bf:	4c 8d 05 da 01 00 00 	lea    0x1da(%rip),%r8        # 12a0 <__libc_csu_fini>
    10c6:	48 8d 0d 73 01 00 00 	lea    0x173(%rip),%rcx        # 1240 <__libc_csu_init>
    10cd:	48 8d 3d c1 00 00 00 	lea    0xc1(%rip),%rdi        # 1195 <main>
    10d4:	ff 15 06 2f 00 00    	callq  *0x2f06(%rip)        # 3fe0 <__libc_start_main@GLIBC_2.2.5>
    10da:	f4                   	hlt    
    10db:	0f 1f 44 00 00       	nopl   0x0(%rax,%rax,1)

00000000000010e0 <deregister_tm_clones>:
    10e0:	48 8d 3d 79 2f 00 00 	lea    0x2f79(%rip),%rdi        # 4060 <__TMC_END__>
    10e7:	48 8d 05 72 2f 00 00 	lea    0x2f72(%rip),%rax        # 4060 <__TMC_END__>
    10ee:	48 39 f8             	cmp    %rdi,%rax
    10f1:	74 15                	je     1108 <deregister_tm_clones+0x28>
    10f3:	48 8b 05 de 2e 00 00 	mov    0x2ede(%rip),%rax        # 3fd8 <_ITM_deregisterTMCloneTable>
    10fa:	48 85 c0             	test   %rax,%rax
    10fd:	74 09                	je     1108 <deregister_tm_clones+0x28>
    10ff:	ff e0                	jmpq   *%rax
    1101:	0f 1f 80 00 00 00 00 	nopl   0x0(%rax)
    1108:	c3                   	retq   
    1109:	0f 1f 80 00 00 00 00 	nopl   0x0(%rax)

0000000000001110 <register_tm_clones>:
    1110:	48 8d 3d 49 2f 00 00 	lea    0x2f49(%rip),%rdi        # 4060 <__TMC_END__>
    1117:	48 8d 35 42 2f 00 00 	lea    0x2f42(%rip),%rsi        # 4060 <__TMC_END__>
    111e:	48 29 fe             	sub    %rdi,%rsi
    1121:	48 c1 fe 03          	sar    $0x3,%rsi
    1125:	48 89 f0             	mov    %rsi,%rax
    1128:	48 c1 e8 3f          	shr    $0x3f,%rax
    112c:	48 01 c6             	add    %rax,%rsi
    112f:	48 d1 fe             	sar    %rsi
    1132:	74 14                	je     1148 <register_tm_clones+0x38>
    1134:	48 8b 05 b5 2e 00 00 	mov    0x2eb5(%rip),%rax        # 3ff0 <_ITM_registerTMCloneTable>
    113b:	48 85 c0             	test   %rax,%rax
    113e:	74 08                	je     1148 <register_tm_clones+0x38>
    1140:	ff e0                	jmpq   *%rax
    1142:	66 0f 1f 44 00 00    	nopw   0x0(%rax,%rax,1)
    1148:	c3                   	retq   
    1149:	0f 1f 80 00 00 00 00 	nopl   0x0(%rax)

0000000000001150 <__do_global_dtors_aux>:
    1150:	80 3d 09 2f 00 00 00 	cmpb   $0x0,0x2f09(%rip)        # 4060 <__TMC_END__>
    1157:	75 2f                	jne    1188 <__do_global_dtors_aux+0x38>
    1159:	55                   	push   %rbp
    115a:	48 83 3d 96 2e 00 00 	cmpq   $0x0,0x2e96(%rip)        # 3ff8 <__cxa_finalize@GLIBC_2.2.5>
    1161:	00 
    1162:	48 89 e5             	mov    %rsp,%rbp
    1165:	74 0c                	je     1173 <__do_global_dtors_aux+0x23>
    1167:	48 8b 3d ea 2e 00 00 	mov    0x2eea(%rip),%rdi        # 4058 <__dso_handle>
    116e:	e8 2d ff ff ff       	callq  10a0 <__cxa_finalize@plt>
    1173:	e8 68 ff ff ff       	callq  10e0 <deregister_tm_clones>
    1178:	c6 05 e1 2e 00 00 01 	movb   $0x1,0x2ee1(%rip)        # 4060 <__TMC_END__>
    117f:	5d                   	pop    %rbp
    1180:	c3                   	retq   
    1181:	0f 1f 80 00 00 00 00 	nopl   0x0(%rax)
    1188:	c3                   	retq   
    1189:	0f 1f 80 00 00 00 00 	nopl   0x0(%rax)

0000000000001190 <frame_dummy>:
    1190:	e9 7b ff ff ff       	jmpq   1110 <register_tm_clones>

0000000000001195 <main>:
    1195:	55                   	push   %rbp
    1196:	48 89 e5             	mov    %rsp,%rbp
    1199:	48 83 ec 20          	sub    $0x20,%rsp
    119d:	48 8d 45 f4          	lea    -0xc(%rbp),%rax
    11a1:	48 89 c7             	mov    %rax,%rdi
    11a4:	e8 a7 fe ff ff       	callq  1050 <pipe@plt>
    11a9:	e8 e2 fe ff ff       	callq  1090 <fork@plt>
    11ae:	89 45 fc             	mov    %eax,-0x4(%rbp)
    11b1:	83 7d fc 00          	cmpl   $0x0,-0x4(%rbp)
    11b5:	79 16                	jns    11cd <main+0x38>
    11b7:	48 8d 3d 46 0e 00 00 	lea    0xe46(%rip),%rdi        # 2004 <_IO_stdin_used+0x4>
    11be:	e8 ad fe ff ff       	callq  1070 <perror@plt>
    11c3:	bf 01 00 00 00       	mov    $0x1,%edi
    11c8:	e8 b3 fe ff ff       	callq  1080 <exit@plt>
    11cd:	83 7d fc 00          	cmpl   $0x0,-0x4(%rbp)
    11d1:	75 30                	jne    1203 <main+0x6e>
    11d3:	48 8d 3d 40 0e 00 00 	lea    0xe40(%rip),%rdi        # 201a <_IO_stdin_used+0x1a>
    11da:	e8 51 fe ff ff       	callq  1030 <puts@plt>
    11df:	8b 45 f4             	mov    -0xc(%rbp),%eax
    11e2:	48 8d 4d e0          	lea    -0x20(%rbp),%rcx
    11e6:	ba 14 00 00 00       	mov    $0x14,%edx
    11eb:	48 89 ce             	mov    %rcx,%rsi
    11ee:	89 c7                	mov    %eax,%edi
    11f0:	e8 6b fe ff ff       	callq  1060 <read@plt>
    11f5:	48 8d 45 e0          	lea    -0x20(%rbp),%rax
    11f9:	48 89 c7             	mov    %rax,%rdi
    11fc:	e8 2f fe ff ff       	callq  1030 <puts@plt>
    1201:	eb 2e                	jmp    1231 <main+0x9c>
    1203:	48 8d 3d 1e 0e 00 00 	lea    0xe1e(%rip),%rdi        # 2028 <_IO_stdin_used+0x28>
    120a:	e8 21 fe ff ff       	callq  1030 <puts@plt>
    120f:	8b 45 f8             	mov    -0x8(%rbp),%eax
    1212:	ba 06 00 00 00       	mov    $0x6,%edx
    1217:	48 8d 35 19 0e 00 00 	lea    0xe19(%rip),%rsi        # 2037 <_IO_stdin_used+0x37>
    121e:	89 c7                	mov    %eax,%edi
    1220:	e8 1b fe ff ff       	callq  1040 <write@plt>
    1225:	48 8d 3d 11 0e 00 00 	lea    0xe11(%rip),%rdi        # 203d <_IO_stdin_used+0x3d>
    122c:	e8 ff fd ff ff       	callq  1030 <puts@plt>
    1231:	b8 00 00 00 00       	mov    $0x0,%eax
    1236:	c9                   	leaveq 
    1237:	c3                   	retq   
    1238:	0f 1f 84 00 00 00 00 	nopl   0x0(%rax,%rax,1)
    123f:	00 

0000000000001240 <__libc_csu_init>:
    1240:	41 57                	push   %r15
    1242:	49 89 d7             	mov    %rdx,%r15
    1245:	41 56                	push   %r14
    1247:	49 89 f6             	mov    %rsi,%r14
    124a:	41 55                	push   %r13
    124c:	41 89 fd             	mov    %edi,%r13d
    124f:	41 54                	push   %r12
    1251:	4c 8d 25 90 2b 00 00 	lea    0x2b90(%rip),%r12        # 3de8 <__frame_dummy_init_array_entry>
    1258:	55                   	push   %rbp
    1259:	48 8d 2d 90 2b 00 00 	lea    0x2b90(%rip),%rbp        # 3df0 <__init_array_end>
    1260:	53                   	push   %rbx
    1261:	4c 29 e5             	sub    %r12,%rbp
    1264:	48 83 ec 08          	sub    $0x8,%rsp
    1268:	e8 93 fd ff ff       	callq  1000 <_init>
    126d:	48 c1 fd 03          	sar    $0x3,%rbp
    1271:	74 1b                	je     128e <__libc_csu_init+0x4e>
    1273:	31 db                	xor    %ebx,%ebx
    1275:	0f 1f 00             	nopl   (%rax)
    1278:	4c 89 fa             	mov    %r15,%rdx
    127b:	4c 89 f6             	mov    %r14,%rsi
    127e:	44 89 ef             	mov    %r13d,%edi
    1281:	41 ff 14 dc          	callq  *(%r12,%rbx,8)
    1285:	48 83 c3 01          	add    $0x1,%rbx
    1289:	48 39 dd             	cmp    %rbx,%rbp
    128c:	75 ea                	jne    1278 <__libc_csu_init+0x38>
    128e:	48 83 c4 08          	add    $0x8,%rsp
    1292:	5b                   	pop    %rbx
    1293:	5d                   	pop    %rbp
    1294:	41 5c                	pop    %r12
    1296:	41 5d                	pop    %r13
    1298:	41 5e                	pop    %r14
    129a:	41 5f                	pop    %r15
    129c:	c3                   	retq   
    129d:	0f 1f 00             	nopl   (%rax)

00000000000012a0 <__libc_csu_fini>:
    12a0:	c3                   	retq   

Disassembly of section .fini:

00000000000012a4 <_fini>:
    12a4:	48 83 ec 08          	sub    $0x8,%rsp
    12a8:	48 83 c4 08          	add    $0x8,%rsp
    12ac:	c3                   	retq   
